target datalayout = "e-m:e-p270:32:32-p271:32:32-p272:64:64-i64:64-i128:128-f80:128-n8:16:32:64-S128"
target triple = "x86_64-pc-linux-gnu"

%struct.OSSL_TIME = type { i64 }
%struct.ssl_st = type { i32, ptr, ptr, ptr, %struct.CRYPTO_REF_COUNT, ptr, %struct.crypto_ex_data_st }
%struct.CRYPTO_REF_COUNT = type { i32 }
%struct.crypto_ex_data_st = type { ptr, ptr }
%struct.ssl_method_st = type { i32, i32, i64, ptr, ptr, ptr, ptr, ptr, ptr, ptr, ptr, ptr, ptr, ptr, ptr, ptr, ptr, ptr, ptr, ptr, ptr, ptr, ptr, ptr, ptr, ptr, ptr, ptr, ptr, ptr, ptr, ptr }
%struct.ssl_connection_st = type { %struct.ssl_st, ptr, i32, ptr, ptr, ptr, i32, ptr, i32, i32, i32, i32, %struct.OSSL_TIME, %struct.OSSL_TIME, %struct.ossl_statem_st, i32, ptr, ptr, i64, i64, i64, %struct.ossl_quic_tls_callbacks_st, ptr, ptr, %struct.anon, ptr, ptr, ptr, i32, ptr, %struct.ssl_dane_st, ptr, ptr, ptr, ptr, i32, [64 x i8], [64 x i8], [64 x i8], [64 x i8], [64 x i8], [64 x i8], [64 x i8], [64 x i8], [64 x i8], [64 x i8], [64 x i8], [64 x i8], ptr, [64 x i8], i64, i32, i64, [32 x i8], ptr, ptr, ptr, i64, ptr, [32 x i8], i64, i32, ptr, ptr, i32, i32, ptr, ptr, ptr, ptr, ptr, i64, ptr, ptr, i64, i32, i32, i32, i64, i32, i32, i64, i64, i64, %struct.anon.1, ptr, i32, ptr, ptr, ptr, i32, ptr, ptr, ptr, i32, i32, i32, i32, ptr, i64, i32, ptr, %struct.srp_ctx_st, ptr, %struct.record_layer_st, ptr, ptr, ptr, ptr, i64, i32, i32, i32, i64, i64, i64, ptr, ptr, ptr, ptr, ptr, i64, ptr, i64, ptr, i64 }
%struct.ossl_statem_st = type { i32, i32, i32, i32, i32, i32, i32, i32, i32, i32, i32, i32, i32, ptr, ptr, ptr, i8 }
%struct.ossl_quic_tls_callbacks_st = type { ptr, ptr, ptr, ptr, ptr, ptr }
%struct.anon = type { i64, [32 x i8], [32 x i8], ptr, ptr, i32, i32, i32, i32, [2 x i8], i32, i32, i32, i32, %struct.anon.0, [64 x i8], i64, [64 x i8], i64, i32, i32, ptr, i64, ptr, i64, i32, i8, i8, i16, ptr, i16 }
%struct.anon.0 = type { [128 x i8], i64, [128 x i8], i64, i64, i32, ptr, ptr, [4 x ptr], [4 x i16], i64, i32, ptr, i64, ptr, i64, ptr, ptr, ptr, i32, i64, ptr, i32, ptr, i64, ptr, i64, ptr, i64, ptr, ptr, ptr, ptr, i64, i64, ptr, ptr, i32, i32, i32, i32 }
%struct.ssl_dane_st = type { ptr, ptr, ptr, ptr, ptr, i32, i32, i32, i64 }
%struct.anon.1 = type { [29 x i8], ptr, ptr, ptr, i32, ptr, i16, i32, %struct.anon.2, i32, i32, i64, ptr, i64, ptr, i64, ptr, i64, ptr, i64, ptr, i64, ptr, ptr, ptr, ptr, ptr, ptr, ptr, i64, ptr, i64, i32, i32, i32, i32, ptr, i64, i32, i8, i32, [4 x i32], i32, i8, i8, i8, i8 }
%struct.anon.2 = type { ptr, ptr, ptr, i64 }
%struct.srp_ctx_st = type { ptr, ptr, ptr, ptr, ptr, ptr, ptr, ptr, ptr, ptr, ptr, ptr, ptr, ptr, i32, i64 }
%struct.record_layer_st = type { ptr, ptr, ptr, ptr, ptr, ptr, ptr, ptr, i64, i32, i64, [4 x i8], i64, i64, i8, ptr, i32, ptr, ptr, ptr, i64, i64, i64, i64, [32 x %struct.tls_record_st] }
%struct.tls_record_st = type { ptr, i32, i8, ptr, ptr, i64, i64, i16, [8 x i8] }
%struct.ssl3_enc_method = type { ptr, ptr, ptr, ptr, ptr, i64, ptr, i64, ptr, ptr, i32, ptr, ptr, ptr }
%struct.ssl_cipher_st = type { i32, ptr, ptr, i32, i32, i32, i32, i32, i32, i32, i32, i32, i32, i32, i32, i32 }

; Function Attrs: nounwind uwtable
define i32 @ssl_cipher_disabled(ptr noundef %0, ptr noundef %1, i32 noundef %2, i32 noundef %3) #1 {
  %5 = alloca i32, align 4
  %6 = alloca ptr, align 8
  %7 = alloca ptr, align 8
  %8 = alloca i32, align 4
  %9 = alloca i32, align 4
  %10 = alloca i32, align 4
  %11 = alloca i32, align 4
  %12 = alloca i32, align 4
  store ptr %0, ptr %6, align 8, !tbaa !25
  store ptr %1, ptr %7, align 8, !tbaa !257
  store i32 %2, ptr %8, align 4, !tbaa !128
  store i32 %3, ptr %9, align 4, !tbaa !128
  call void @llvm.lifetime.start.p0(i64 4, ptr %10) #8
  %13 = load ptr, ptr %6, align 8, !tbaa !25
  %14 = getelementptr inbounds nuw %struct.ssl_connection_st, ptr %13, i32 0, i32 0
  %15 = getelementptr inbounds nuw %struct.ssl_st, ptr %14, i32 0, i32 3
  %16 = load ptr, ptr %15, align 8, !tbaa !152
  %17 = getelementptr inbounds nuw %struct.ssl_method_st, ptr %16, i32 0, i32 28
  %18 = load ptr, ptr %17, align 8, !tbaa !153
  %19 = getelementptr inbounds nuw %struct.ssl3_enc_method, ptr %18, i32 0, i32 10
  %20 = load i32, ptr %19, align 8, !tbaa !154
  %21 = and i32 %20, 8
  %22 = icmp ne i32 %21, 0
  br i1 %22, label %23, label %27

23:                                               ; preds = %4
  %24 = load ptr, ptr %7, align 8, !tbaa !257
  %25 = getelementptr inbounds nuw %struct.ssl_cipher_st, ptr %24, i32 0, i32 10
  %26 = load i32, ptr %25, align 4, !tbaa !258
  br label %31

27:                                               ; preds = %4
  %28 = load ptr, ptr %7, align 8, !tbaa !257
  %29 = getelementptr inbounds nuw %struct.ssl_cipher_st, ptr %28, i32 0, i32 8
  %30 = load i32, ptr %29, align 4, !tbaa !259
  br label %31

31:                                               ; preds = %27, %23
  %32 = phi i32 [ %26, %23 ], [ %30, %27 ]
  store i32 %32, ptr %10, align 4, !tbaa !128
  call void @llvm.lifetime.start.p0(i64 4, ptr %11) #8
  %33 = load ptr, ptr %6, align 8, !tbaa !25
  %34 = getelementptr inbounds nuw %struct.ssl_connection_st, ptr %33, i32 0, i32 0
  %35 = getelementptr inbounds nuw %struct.ssl_st, ptr %34, i32 0, i32 3
  %36 = load ptr, ptr %35, align 8, !tbaa !152
  %37 = getelementptr inbounds nuw %struct.ssl_method_st, ptr %36, i32 0, i32 28
  %38 = load ptr, ptr %37, align 8, !tbaa !153
  %39 = getelementptr inbounds nuw %struct.ssl3_enc_method, ptr %38, i32 0, i32 10
  %40 = load i32, ptr %39, align 8, !tbaa !154
  %41 = and i32 %40, 8
  %42 = icmp ne i32 %41, 0
  br i1 %42, label %43, label %47

43:                                               ; preds = %31
  %44 = load ptr, ptr %7, align 8, !tbaa !257
  %45 = getelementptr inbounds nuw %struct.ssl_cipher_st, ptr %44, i32 0, i32 11
  %46 = load i32, ptr %45, align 8, !tbaa !260
  br label %51

47:                                               ; preds = %31
  %48 = load ptr, ptr %7, align 8, !tbaa !257
  %49 = getelementptr inbounds nuw %struct.ssl_cipher_st, ptr %48, i32 0, i32 9
  %50 = load i32, ptr %49, align 8, !tbaa !261
  br label %51

51:                                               ; preds = %47, %43
  %52 = phi i32 [ %46, %43 ], [ %50, %47 ]
  store i32 %52, ptr %11, align 4, !tbaa !128
  %53 = load ptr, ptr %7, align 8, !tbaa !257
  %54 = getelementptr inbounds nuw %struct.ssl_cipher_st, ptr %53, i32 0, i32 4
  %55 = load i32, ptr %54, align 4, !tbaa !262
  %56 = load ptr, ptr %6, align 8, !tbaa !25
  %57 = getelementptr inbounds nuw %struct.ssl_connection_st, ptr %56, i32 0, i32 24
  %58 = getelementptr inbounds nuw %struct.anon, ptr %57, i32 0, i32 14
  %59 = getelementptr inbounds nuw %struct.anon.0, ptr %58, i32 0, i32 37
  %60 = load i32, ptr %59, align 8, !tbaa !253
  %61 = and i32 %55, %60
  %62 = icmp ne i32 %61, 0
  br i1 %62, label %74, label %63

63:                                               ; preds = %51
  %64 = load ptr, ptr %7, align 8, !tbaa !257
  %65 = getelementptr inbounds nuw %struct.ssl_cipher_st, ptr %64, i32 0, i32 5
  %66 = load i32, ptr %65, align 8, !tbaa !232
  %67 = load ptr, ptr %6, align 8, !tbaa !25
  %68 = getelementptr inbounds nuw %struct.ssl_connection_st, ptr %67, i32 0, i32 24
  %69 = getelementptr inbounds nuw %struct.anon, ptr %68, i32 0, i32 14
  %70 = getelementptr inbounds nuw %struct.anon.0, ptr %69, i32 0, i32 38
  %71 = load i32, ptr %70, align 4, !tbaa !252
  %72 = and i32 %66, %71
  %73 = icmp ne i32 %72, 0
  br i1 %73, label %74, label %75

74:                                               ; preds = %63, %51
  store i32 1, ptr %5, align 4
  store i32 1, ptr %12, align 4
  br label %141

75:                                               ; preds = %63
  %76 = load ptr, ptr %6, align 8, !tbaa !25
  %77 = getelementptr inbounds nuw %struct.ssl_connection_st, ptr %76, i32 0, i32 24
  %78 = getelementptr inbounds nuw %struct.anon, ptr %77, i32 0, i32 14
  %79 = getelementptr inbounds nuw %struct.anon.0, ptr %78, i32 0, i32 40
  %80 = load i32, ptr %79, align 4, !tbaa !263
  %81 = icmp eq i32 %80, 0
  br i1 %81, label %82, label %83

82:                                               ; preds = %75
  store i32 1, ptr %5, align 4
  store i32 1, ptr %12, align 4
  br label %141

83:                                               ; preds = %75
  %84 = load ptr, ptr %6, align 8, !tbaa !25
  %85 = getelementptr inbounds nuw %struct.ssl_connection_st, ptr %84, i32 0, i32 24
  %86 = getelementptr inbounds nuw %struct.anon, ptr %85, i32 0, i32 0
  %87 = load i64, ptr %86, align 8, !tbaa !264
  %88 = and i64 %87, 8192
  %89 = icmp ne i64 %88, 0
  br i1 %89, label %90, label %96

90:                                               ; preds = %83
  %91 = load ptr, ptr %7, align 8, !tbaa !257
  %92 = call i32 @SSL_CIPHER_get_id(ptr noundef %91)
  switch i32 %92, label %94 [
    i32 50336513, label %93
    i32 50336514, label %93
    i32 50336515, label %93
  ]

93:                                               ; preds = %90, %90, %90
  br label %95

94:                                               ; preds = %90
  store i32 1, ptr %5, align 4
  store i32 1, ptr %12, align 4
  br label %141

95:                                               ; preds = %93
  br label %96

96:                                               ; preds = %95, %83
  %97 = load i32, ptr %10, align 4, !tbaa !128
  %98 = icmp eq i32 %97, 769
  br i1 %98, label %99, label %109

99:                                               ; preds = %96
  %100 = load i32, ptr %9, align 4, !tbaa !128
  %101 = icmp ne i32 %100, 0
  br i1 %101, label %102, label %109

102:                                              ; preds = %99
  %103 = load ptr, ptr %7, align 8, !tbaa !257
  %104 = getelementptr inbounds nuw %struct.ssl_cipher_st, ptr %103, i32 0, i32 4
  %105 = load i32, ptr %104, align 4, !tbaa !262
  %106 = and i32 %105, 132
  %107 = icmp ne i32 %106, 0
  br i1 %107, label %108, label %109

108:                                              ; preds = %102
  store i32 768, ptr %10, align 4, !tbaa !128
  br label %109

109:                                              ; preds = %108, %102, %99, %96
  %110 = load ptr, ptr %6, align 8, !tbaa !25
  %111 = load i32, ptr %10, align 4, !tbaa !128
  %112 = load ptr, ptr %6, align 8, !tbaa !25
  %113 = getelementptr inbounds nuw %struct.ssl_connection_st, ptr %112, i32 0, i32 24
  %114 = getelementptr inbounds nuw %struct.anon, ptr %113, i32 0, i32 14
  %115 = getelementptr inbounds nuw %struct.anon.0, ptr %114, i32 0, i32 40
  %116 = load i32, ptr %115, align 4, !tbaa !263
  %117 = call i32 @ssl_version_cmp(ptr noundef %110, i32 noundef %111, i32 noundef %116)
  %118 = icmp sgt i32 %117, 0
  br i1 %118, label %129, label %119

119:                                              ; preds = %109
  %120 = load ptr, ptr %6, align 8, !tbaa !25
  %121 = load i32, ptr %11, align 4, !tbaa !128
  %122 = load ptr, ptr %6, align 8, !tbaa !25
  %123 = getelementptr inbounds nuw %struct.ssl_connection_st, ptr %122, i32 0, i32 24
  %124 = getelementptr inbounds nuw %struct.anon, ptr %123, i32 0, i32 14
  %125 = getelementptr inbounds nuw %struct.anon.0, ptr %124, i32 0, i32 39
  %126 = load i32, ptr %125, align 8, !tbaa !265
  %127 = call i32 @ssl_version_cmp(ptr noundef %120, i32 noundef %121, i32 noundef %126)
  %128 = icmp slt i32 %127, 0
  br i1 %128, label %129, label %130

129:                                              ; preds = %119, %109
  store i32 1, ptr %5, align 4
  store i32 1, ptr %12, align 4
  br label %141

130:                                              ; preds = %119
  %131 = load ptr, ptr %6, align 8, !tbaa !25
  %132 = load i32, ptr %8, align 4, !tbaa !128
  %133 = load ptr, ptr %7, align 8, !tbaa !257
  %134 = getelementptr inbounds nuw %struct.ssl_cipher_st, ptr %133, i32 0, i32 14
  %135 = load i32, ptr %134, align 4, !tbaa !266
  %136 = load ptr, ptr %7, align 8, !tbaa !257
  %137 = call i32 @ssl_security(ptr noundef %131, i32 noundef %132, i32 noundef %135, i32 noundef 0, ptr noundef %136)
  %138 = icmp ne i32 %137, 0
  %139 = xor i1 %138, true
  %140 = zext i1 %139 to i32
  store i32 %140, ptr %5, align 4
  store i32 1, ptr %12, align 4
  br label %141

141:                                              ; preds = %130, %129, %94, %82, %74
  call void @llvm.lifetime.end.p0(i64 4, ptr %11) #8
  call void @llvm.lifetime.end.p0(i64 4, ptr %10) #8
  %142 = load i32, ptr %5, align 4
  ret i32 %142
}