; Function Attrs: nounwind uwtable
define range(i32 0, 2) i32 @ssl_cipher_disabled(ptr noundef %0, ptr noundef %1, i32 noundef %2, i32 noundef %3) local_unnamed_addr #2 {
  %5 = getelementptr inbounds nuw i8, ptr %0, i64 24
  %6 = load ptr, ptr %5, align 8, !tbaa !136
  %7 = getelementptr inbounds nuw i8, ptr %6, i64 216
  %8 = load ptr, ptr %7, align 8, !tbaa !137
  %9 = getelementptr inbounds nuw i8, ptr %8, i64 80
  %10 = load i32, ptr %9, align 8, !tbaa !138
  %11 = and i32 %10, 8
  %.not = icmp eq i32 %11, 0
  %.in.v = select i1 %.not, i64 44, i64 52
  %.in = getelementptr inbounds nuw i8, ptr %1, i64 %.in.v
  %12 = load i32, ptr %.in, align 4, !tbaa !135
  %.in30.v = select i1 %.not, i64 48, i64 56
  %.in30 = getelementptr inbounds nuw i8, ptr %1, i64 %.in30.v
  %13 = load i32, ptr %.in30, align 8, !tbaa !135
  %14 = getelementptr inbounds nuw i8, ptr %1, i64 28
  %15 = load i32, ptr %14, align 4, !tbaa !224
  %16 = getelementptr inbounds nuw i8, ptr %0, i64 352
  %17 = getelementptr inbounds nuw i8, ptr %0, i64 1040
  %18 = load i32, ptr %17, align 8, !tbaa !219
  %19 = and i32 %18, %15
  %.not31 = icmp eq i32 %19, 0
  br i1 %.not31, label %20, label %55

20:                                               ; preds = %4
  %21 = getelementptr inbounds nuw i8, ptr %1, i64 32
  %22 = load i32, ptr %21, align 8, !tbaa !198
  %23 = getelementptr inbounds nuw i8, ptr %0, i64 1044
  %24 = load i32, ptr %23, align 4, !tbaa !218
  %25 = and i32 %24, %22
  %.not32 = icmp eq i32 %25, 0
  br i1 %.not32, label %26, label %55

26:                                               ; preds = %20
  %27 = getelementptr inbounds nuw i8, ptr %0, i64 1052
  %28 = load i32, ptr %27, align 4, !tbaa !225
  %29 = icmp eq i32 %28, 0
  br i1 %29, label %55, label %30

30:                                               ; preds = %26
  %31 = load i64, ptr %16, align 8, !tbaa !226
  %32 = and i64 %31, 8192
  %.not33 = icmp eq i64 %32, 0
  br i1 %.not33, label %35, label %33

33:                                               ; preds = %30
  %34 = tail call i32 @SSL_CIPHER_get_id(ptr noundef nonnull %1) #14
  %.off = add i32 %34, -50336513
  %switch = icmp ult i32 %.off, 3
  br i1 %switch, label %35, label %55

35:                                               ; preds = %33, %30
  %36 = icmp eq i32 %12, 769
  %37 = icmp ne i32 %3, 0
  %or.cond = and i1 %37, %36
  br i1 %or.cond, label %38, label %41

38:                                               ; preds = %35
  %39 = load i32, ptr %14, align 4, !tbaa !224
  %40 = and i32 %39, 132
  %.not34 = icmp eq i32 %40, 0
  %spec.select = select i1 %.not34, i32 769, i32 768
  br label %41

41:                                               ; preds = %38, %35
  %.027 = phi i32 [ %12, %35 ], [ %spec.select, %38 ]
  %42 = load i32, ptr %27, align 4, !tbaa !225
  %43 = tail call i32 @ssl_version_cmp(ptr noundef nonnull %0, i32 noundef %.027, i32 noundef %42) #14
  %44 = icmp sgt i32 %43, 0
  br i1 %44, label %55, label %45

45:                                               ; preds = %41
  %46 = getelementptr inbounds nuw i8, ptr %0, i64 1048
  %47 = load i32, ptr %46, align 8, !tbaa !227
  %48 = tail call i32 @ssl_version_cmp(ptr noundef nonnull %0, i32 noundef %13, i32 noundef %47) #14
  %49 = icmp slt i32 %48, 0
  br i1 %49, label %55, label %50

50:                                               ; preds = %45
  %51 = getelementptr inbounds nuw i8, ptr %1, i64 68
  %52 = load i32, ptr %51, align 4, !tbaa !228
  %53 = tail call i32 @ssl_security(ptr noundef nonnull %0, i32 noundef %2, i32 noundef %52, i32 noundef 0, ptr noundef nonnull %1) #14
  %.not35 = icmp eq i32 %53, 0
  %54 = zext i1 %.not35 to i32
  br label %55

55:                                               ; preds = %41, %45, %33, %26, %4, %20, %50
  %.0 = phi i32 [ %54, %50 ], [ 1, %20 ], [ 1, %4 ], [ 1, %26 ], [ 1, %33 ], [ 1, %45 ], [ 1, %41 ]
  ret i32 %.0
}